; Function Attrs: mustprogress nofree nounwind willreturn memory(read, inaccessiblemem: none) uwtable
define internal noundef zeroext i8 @"_ZZL18getCodegenAssemblyB5cxx11PKcbiEN3$_08__invokeEPvS0_m"(ptr nocapture noundef readonly %0, ptr nocapture noundef readonly %1, i64 noundef %2) #12 align 2 personality ptr @__gxx_personality_v0 {
  %4 = load ptr, ptr %0, align 8
  %.not3.i = icmp eq ptr %4, null
  br i1 %.not3.i, label %"_ZZL18getCodegenAssemblyB5cxx11PKcbiENK3$_0clEPvS0_m.exit", label %.lr.ph.i

.lr.ph.i:                                         ; preds = %3
  %5 = icmp eq i64 %2, 0
  br i1 %5, label %.lr.ph.split.us.i, label %.lr.ph.split.i

.lr.ph.split.us.i:                                ; preds = %.lr.ph.i, %8
  %6 = phi ptr [ %11, %8 ], [ %4, %.lr.ph.i ]
  %.085.us.i = phi ptr [ %10, %8 ], [ %0, %.lr.ph.i ]
  %.094.us.i = phi i8 [ %9, %8 ], [ 0, %.lr.ph.i ]
  %char0.i = load i8, ptr %6, align 1
  %7 = icmp eq i8 %char0.i, 0
  br i1 %7, label %"_ZZL18getCodegenAssemblyB5cxx11PKcbiENK3$_0clEPvS0_m.exit", label %8

8:                                                ; preds = %.lr.ph.split.us.i
  %9 = add i8 %.094.us.i, 1
  %10 = getelementptr inbounds i8, ptr %.085.us.i, i64 8
  %11 = load ptr, ptr %10, align 8
  %.not.us.i = icmp eq ptr %11, null
  br i1 %.not.us.i, label %"_ZZL18getCodegenAssemblyB5cxx11PKcbiENK3$_0clEPvS0_m.exit", label %.lr.ph.split.us.i, !llvm.loop !74

.lr.ph.split.i:                                   ; preds = %.lr.ph.i, %16
  %12 = phi ptr [ %19, %16 ], [ %4, %.lr.ph.i ]
  %.085.i = phi ptr [ %18, %16 ], [ %0, %.lr.ph.i ]
  %.094.i = phi i8 [ %17, %16 ], [ 0, %.lr.ph.i ]
  %13 = tail call noundef i64 @strlen(ptr noundef nonnull dereferenceable(1) %12) #16
  %14 = icmp eq i64 %13, %2
  br i1 %14, label %_ZNSt11char_traitsIcE7compareEPKcS2_m.exit.i.i.i, label %16

_ZNSt11char_traitsIcE7compareEPKcS2_m.exit.i.i.i: ; preds = %.lr.ph.split.i
  %bcmp.i.i = tail call i32 @bcmp(ptr readonly %1, ptr nonnull %12, i64 %2)
  %15 = icmp eq i32 %bcmp.i.i, 0
  br i1 %15, label %"_ZZL18getCodegenAssemblyB5cxx11PKcbiENK3$_0clEPvS0_m.exit", label %16

16:                                               ; preds = %_ZNSt11char_traitsIcE7compareEPKcS2_m.exit.i.i.i, %.lr.ph.split.i
  %17 = add i8 %.094.i, 1
  %18 = getelementptr inbounds i8, ptr %.085.i, i64 8
  %19 = load ptr, ptr %18, align 8
  %.not.i = icmp eq ptr %19, null
  br i1 %.not.i, label %"_ZZL18getCodegenAssemblyB5cxx11PKcbiENK3$_0clEPvS0_m.exit", label %.lr.ph.split.i, !llvm.loop !74

"_ZZL18getCodegenAssemblyB5cxx11PKcbiENK3$_0clEPvS0_m.exit": ; preds = %_ZNSt11char_traitsIcE7compareEPKcS2_m.exit.i.i.i, %16, %.lr.ph.split.us.i, %8, %3
  %.0.i = phi i8 [ -1, %3 ], [ -1, %8 ], [ %.094.us.i, %.lr.ph.split.us.i ], [ -1, %16 ], [ %.094.i, %_ZNSt11char_traitsIcE7compareEPKcS2_m.exit.i.i.i ]
  ret i8 %.0.i
}